; Function Attrs: mustprogress nounwind uwtable
define hidden void @_ZN13SharedRuntime26log_jni_monitor_still_heldEv() local_unnamed_addr #0 align 2 {
  %1 = load volatile ptr, ptr getelementptr inbounds (i8, ptr @_ZN16LogTagSetMappingILN6LogTag4typeE67ELS1_0ELS1_0ELS1_0ELS1_0ELS1_0EE7_tagsetE, i64 56), align 8
  %.not = icmp eq ptr %1, null
  br i1 %.not, label %21, label %2

2:                                                ; preds = %0
  %3 = tail call align 8 ptr @llvm.threadlocal.address.p0(ptr align 8 @_ZN6Thread12_thr_currentE)
  %4 = load ptr, ptr %3, align 8
  %5 = tail call noundef ptr @_ZNK10JavaThread7vthreadEv(ptr noundef nonnull align 8 dereferenceable(1800) %4) #18
  %6 = load i32, ptr @_ZN16java_lang_Thread11_tid_offsetE, align 4
  %7 = ptrtoint ptr %5 to i64
  %8 = sext i32 %6 to i64
  %9 = add nsw i64 %8, %7
  %10 = inttoptr i64 %9 to ptr
  %11 = load i64, ptr %10, align 8
  %12 = tail call noundef ptr @_ZNK10JavaThread9threadObjEv(ptr noundef nonnull align 8 dereferenceable(1800) %4) #18
  %13 = load i32, ptr @_ZN16java_lang_Thread11_tid_offsetE, align 4
  %14 = ptrtoint ptr %12 to i64
  %15 = sext i32 %13 to i64
  %16 = add nsw i64 %15, %14
  %17 = inttoptr i64 %16 to ptr
  %18 = load i64, ptr %17, align 8
  %19 = load volatile ptr, ptr getelementptr inbounds (i8, ptr @_ZN16LogTagSetMappingILN6LogTag4typeE67ELS1_0ELS1_0ELS1_0ELS1_0ELS1_0EE7_tagsetE, i64 56), align 8
  %.not3 = icmp eq ptr %19, null
  br i1 %.not3, label %21, label %20

20:                                               ; preds = %2
  tail call void (ptr, ...) @_ZN7LogImplILN6LogTag4typeE67ELS1_0ELS1_0ELS1_0ELS1_0ELS1_0EE5writeILN8LogLevel4typeE2EEEvPKcz(ptr noundef nonnull @.str.47, i64 noundef %11, i64 noundef %18)
  br label %21

21:                                               ; preds = %20, %2, %0
  ret void
}